target datalayout = "e-m:e-p270:32:32-p271:32:32-p272:64:64-i64:64-i128:128-f80:128-n8:16:32:64-S128"
target triple = "x86_64-pc-linux-gnu"

%struct.slurm_conf_t = type { i64, ptr, i16, ptr, ptr, ptr, ptr, ptr, i16, ptr, ptr, ptr, ptr, ptr, ptr, ptr, i16, ptr, ptr, ptr, ptr, i16, ptr, ptr, ptr, i64, ptr, ptr, ptr, ptr, i16, ptr, ptr, i16, i32, ptr, i32, ptr, i32, i32, ptr, ptr, i64, i64, ptr, i16, i16, ptr, i32, i32, ptr, i32, ptr, i32, i16, i16, i16, ptr, i16, i16, ptr, ptr, i32, i16, i16, ptr, i32, i16, ptr, ptr, ptr, ptr, i16, ptr, ptr, ptr, ptr, i32, ptr, ptr, ptr, ptr, i16, i16, ptr, i32, i32, i32, i16, i16, ptr, ptr, i16, ptr, ptr, i32, i32, i32, i32, i32, i64, i32, i32, i16, ptr, ptr, i32, ptr, ptr, ptr, i16, i32, ptr, ptr, i16, ptr, ptr, i32, i16, ptr, ptr, ptr, ptr, i32, i32, i16, i16, i32, ptr, i16, ptr, i32, i32, i32, i32, i32, i32, ptr, i16, ptr, ptr, i32, i16, ptr, i32, i16, i16, ptr, ptr, ptr, i16, ptr, ptr, ptr, ptr, i16, i16, ptr, i16, ptr, i16, ptr, i16, ptr, i16, ptr, ptr, ptr, ptr, i16, ptr, ptr, ptr, i32, ptr, i32, ptr, ptr, i16, ptr, ptr, i32, i16, ptr, ptr, i16, i16, ptr, i16, ptr, ptr, ptr, i32, ptr, i16, i16, ptr, ptr, ptr, ptr, ptr, ptr, ptr, ptr, i16, i32, i16, ptr, ptr, ptr, ptr, i32, ptr, ptr, ptr, i16, ptr, ptr, ptr, i16, ptr, i16, ptr, i16, i16, ptr }
%struct.job_record = type { i32, ptr, ptr, ptr, ptr, i16, i32, i32, i32, ptr, i32, ptr, ptr, i16, ptr, double, i64, ptr, ptr, ptr, ptr, ptr, ptr, i32, ptr, i32, i64, i64, i32, i32, ptr, i16, i64, i64, i8, i32, ptr, ptr, ptr, ptr, ptr, ptr, ptr, ptr, i32, ptr, ptr, i32, ptr, i32, ptr, i32, ptr, i32, ptr, ptr, ptr, ptr, ptr, ptr, i32, i16, i64, ptr, ptr, ptr, ptr, %struct.acct_policy_limit_set_t, i16, ptr, ptr, ptr, ptr, ptr, i32, ptr, ptr, ptr, ptr, ptr, i32, i32, ptr, ptr, ptr, i16, ptr, ptr, i8, ptr, ptr, i64, i64, i8, i32, i32, i8, i32, ptr, i32, i64, i32, ptr, ptr, ptr, i8, i16, i64, i32, ptr, ptr, ptr, ptr, ptr, i16, i32, ptr, ptr, ptr, ptr, i32, ptr, i32, i16, i64, ptr, i32, i32, ptr, i64, ptr, ptr, i64, i32, i32, i64, i32, i32, ptr, ptr, ptr, ptr, ptr, ptr, ptr, ptr, ptr, ptr, ptr, ptr, i32, ptr, i16, i16, i16, i16, ptr, i32, i32, i8, i64 }
%struct.acct_policy_limit_set_t = type { i16, i16, ptr }
%struct.job_details_t = type { i32, ptr, i64, ptr, i32, ptr, i64, ptr, i16, i16, ptr, i16, i32, i32, i32, i16, ptr, i16, ptr, ptr, ptr, i16, ptr, ptr, ptr, ptr, i32, ptr, ptr, ptr, ptr, ptr, i32, i32, i32, ptr, ptr, i16, i32, i32, i32, i32, i32, i32, i16, i16, i32, i8, i8, i32, i32, i64, i64, i16, i32, ptr, ptr, i8, ptr, i32, ptr, i64, ptr, ptr, i16, i16, i16, i8, ptr, ptr, ptr, ptr, ptr, ptr, i64, i32, i32, i8, ptr, i16, ptr, ptr, i16 }

@acct_db_conn = external global ptr, align 8
@slurm_conf = external global %struct.slurm_conf_t, align 8
@last_job_update = dso_local global i64 0, align 8
@.str.167 = private unnamed_addr constant [4 x i8] c"TBD\00", align 1
@power_down_node_bitmap = external global ptr, align 8

; Function Attrs: nounwind uwtable
define internal zeroext i1 @_job_all_finished(ptr noundef %0) #0 {
  %2 = alloca i1, align 1
  %3 = alloca ptr, align 8
  %4 = alloca ptr, align 8
  %5 = alloca ptr, align 8
  %6 = alloca i8, align 1
  %7 = alloca i32, align 4
  store ptr %0, ptr %3, align 8
  call void @llvm.lifetime.start.p0(i64 8, ptr %4) #13
  call void @llvm.lifetime.start.p0(i64 8, ptr %5) #13
  call void @llvm.lifetime.start.p0(i64 1, ptr %6) #13
  store i8 1, ptr %6, align 1
  %8 = load ptr, ptr %3, align 8
  %9 = getelementptr inbounds nuw %struct.job_record, ptr %8, i32 0, i32 60
  %10 = load i32, ptr %9, align 8
  %11 = and i32 %10, 255
  %12 = icmp ugt i32 %11, 2
  br i1 %12, label %14, label %13

13:                                               ; preds = %1
  store i1 false, ptr %2, align 1
  store i32 1, ptr %7, align 4
  br label %41

14:                                               ; preds = %1
  %15 = load ptr, ptr %3, align 8
  %16 = getelementptr inbounds nuw %struct.job_record, ptr %15, i32 0, i32 52
  %17 = load ptr, ptr %16, align 8
  %18 = icmp ne ptr %17, null
  br i1 %18, label %20, label %19

19:                                               ; preds = %14
  store i1 true, ptr %2, align 1
  store i32 1, ptr %7, align 4
  br label %41

20:                                               ; preds = %14
  %21 = load ptr, ptr %3, align 8
  %22 = getelementptr inbounds nuw %struct.job_record, ptr %21, i32 0, i32 52
  %23 = load ptr, ptr %22, align 8
  %24 = call ptr @list_iterator_create(ptr noundef %23)
  store ptr %24, ptr %5, align 8
  br label %25

25:                                               ; preds = %36, %20
  %26 = load ptr, ptr %5, align 8
  %27 = call ptr @list_next(ptr noundef %26)
  store ptr %27, ptr %4, align 8
  %28 = icmp ne ptr %27, null
  br i1 %28, label %29, label %37

29:                                               ; preds = %25
  %30 = load ptr, ptr %4, align 8
  %31 = getelementptr inbounds nuw %struct.job_record, ptr %30, i32 0, i32 60
  %32 = load i32, ptr %31, align 8
  %33 = and i32 %32, 255
  %34 = icmp ugt i32 %33, 2
  br i1 %34, label %36, label %35

35:                                               ; preds = %29
  store i8 0, ptr %6, align 1
  br label %37

36:                                               ; preds = %29
  br label %25, !llvm.loop !83

37:                                               ; preds = %35, %25
  %38 = load ptr, ptr %5, align 8
  call void @list_iterator_destroy(ptr noundef %38)
  %39 = load i8, ptr %6, align 1, !range !8, !noundef !9
  %40 = trunc i8 %39 to i1
  store i1 %40, ptr %2, align 1
  store i32 1, ptr %7, align 4
  br label %41

41:                                               ; preds = %37, %19, %13
  call void @llvm.lifetime.end.p0(i64 1, ptr %6) #13
  call void @llvm.lifetime.end.p0(i64 8, ptr %5) #13
  call void @llvm.lifetime.end.p0(i64 8, ptr %4) #13
  %42 = load i1, ptr %2, align 1
  ret i1 %42
}

; Function Attrs: nounwind uwtable
define dso_local i32 @job_alloc_info_ptr(i32 noundef %0, ptr noundef %1) #0 {
  %3 = alloca i32, align 4
  %4 = alloca i32, align 4
  %5 = alloca ptr, align 8
  %6 = alloca i8, align 1
  %7 = alloca i32, align 4
  store i32 %0, ptr %4, align 4
  store ptr %1, ptr %5, align 8
  call void @llvm.lifetime.start.p0(i64 1, ptr %6) #13
  store i8 0, ptr %6, align 1
  %8 = load i16, ptr getelementptr inbounds nuw (%struct.slurm_conf_t, ptr @slurm_conf, i32 0, i32 138), align 8
  %9 = zext i16 %8 to i64
  %10 = and i64 %9, 1
  %11 = icmp ne i64 %10, 0
  br i1 %11, label %12, label %42

12:                                               ; preds = %2
  %13 = load ptr, ptr %5, align 8
  %14 = getelementptr inbounds nuw %struct.job_record, ptr %13, i32 0, i32 150
  %15 = load i32, ptr %14, align 8
  %16 = load i32, ptr %4, align 4
  %17 = icmp ne i32 %15, %16
  br i1 %17, label %18, label %42

18:                                               ; preds = %12
  %19 = load i32, ptr %4, align 4
  %20 = call zeroext i1 @validate_operator(i32 noundef %19)
  br i1 %20, label %42, label %21

21:                                               ; preds = %18
  %22 = call i32 @slurm_mcs_get_privatedata()
  %23 = icmp eq i32 %22, 0
  br i1 %23, label %24, label %31

24:                                               ; preds = %21
  %25 = load ptr, ptr @acct_db_conn, align 8
  %26 = load i32, ptr %4, align 4
  %27 = load ptr, ptr %5, align 8
  %28 = getelementptr inbounds nuw %struct.job_record, ptr %27, i32 0, i32 1
  %29 = load ptr, ptr %28, align 8
  %30 = call zeroext i1 @assoc_mgr_is_user_acct_coord(ptr noundef %25, i32 noundef %26, ptr noundef %29, i1 noundef zeroext false)
  br i1 %30, label %31, label %41

31:                                               ; preds = %24, %21
  %32 = call i32 @slurm_mcs_get_privatedata()
  %33 = icmp eq i32 %32, 1
  br i1 %33, label %34, label %42

34:                                               ; preds = %31
  %35 = load i32, ptr %4, align 4
  %36 = load ptr, ptr %5, align 8
  %37 = getelementptr inbounds nuw %struct.job_record, ptr %36, i32 0, i32 71
  %38 = load ptr, ptr %37, align 8
  %39 = call i32 @mcs_g_check_mcs_label(i32 noundef %35, ptr noundef %38, i1 noundef zeroext false)
  %40 = icmp ne i32 %39, 0
  br i1 %40, label %41, label %42

41:                                               ; preds = %34, %24
  store i32 2002, ptr %3, align 4
  store i32 1, ptr %7, align 4
  br label %95

42:                                               ; preds = %34, %31, %18, %12, %2
  %43 = load ptr, ptr %5, align 8
  %44 = getelementptr inbounds nuw %struct.job_record, ptr %43, i32 0, i32 60
  %45 = load i32, ptr %44, align 8
  %46 = and i32 %45, 255
  %47 = icmp eq i32 %46, 0
  br i1 %47, label %48, label %49

48:                                               ; preds = %42
  store i32 2024, ptr %3, align 4
  store i32 1, ptr %7, align 4
  br label %95

49:                                               ; preds = %42
  %50 = load ptr, ptr %5, align 8
  %51 = call zeroext i1 @_job_all_finished(ptr noundef %50)
  br i1 %51, label %52, label %53

52:                                               ; preds = %49
  store i32 2021, ptr %3, align 4
  store i32 1, ptr %7, align 4
  br label %95

53:                                               ; preds = %49
  %54 = load ptr, ptr %5, align 8
  %55 = getelementptr inbounds nuw %struct.job_record, ptr %54, i32 0, i32 30
  %56 = load ptr, ptr %55, align 8
  %57 = icmp ne ptr %56, null
  br i1 %57, label %58, label %64

58:                                               ; preds = %53
  %59 = load ptr, ptr %5, align 8
  %60 = getelementptr inbounds nuw %struct.job_record, ptr %59, i32 0, i32 30
  %61 = load ptr, ptr %60, align 8
  %62 = getelementptr inbounds nuw %struct.job_details_t, ptr %61, i32 0, i32 57
  %63 = load i8, ptr %62, align 8
  store i8 %63, ptr %6, align 1
  br label %64

64:                                               ; preds = %58, %53
  %65 = load ptr, ptr %5, align 8
  %66 = getelementptr inbounds nuw %struct.job_record, ptr %65, i32 0, i32 3
  %67 = load ptr, ptr %66, align 8
  %68 = icmp ne ptr %67, null
  br i1 %68, label %69, label %94

69:                                               ; preds = %64
  %70 = load ptr, ptr %5, align 8
  %71 = getelementptr inbounds nuw %struct.job_record, ptr %70, i32 0, i32 3
  %72 = load ptr, ptr %71, align 8
  %73 = call i32 @xstrcmp(ptr noundef %72, ptr noundef @.str.167)
  %74 = icmp ne i32 %73, 0
  br i1 %74, label %94, label %75

75:                                               ; preds = %69
  %76 = load i8, ptr %6, align 1
  %77 = zext i8 %76 to i32
  %78 = icmp eq i32 %77, 0
  br i1 %78, label %79, label %94

79:                                               ; preds = %75
  %80 = load ptr, ptr %5, align 8
  %81 = getelementptr inbounds nuw %struct.job_record, ptr %80, i32 0, i32 77
  %82 = load ptr, ptr %81, align 8
  %83 = icmp ne ptr %82, null
  br i1 %83, label %84, label %94

84:                                               ; preds = %79
  %85 = load ptr, ptr @power_down_node_bitmap, align 8
  %86 = load ptr, ptr %5, align 8
  %87 = getelementptr inbounds nuw %struct.job_record, ptr %86, i32 0, i32 77
  %88 = load ptr, ptr %87, align 8
  %89 = call i32 @bit_overlap_any(ptr noundef %85, ptr noundef %88)
  %90 = icmp eq i32 %89, 0
  br i1 %90, label %91, label %94

91:                                               ; preds = %84
  %92 = call i64 @time(ptr noundef null) #13
  store i64 %92, ptr @last_job_update, align 8
  %93 = load ptr, ptr %5, align 8
  call void @set_job_alias_list(ptr noundef %93)
  br label %94

94:                                               ; preds = %91, %84, %79, %75, %69, %64
  store i32 0, ptr %3, align 4
  store i32 1, ptr %7, align 4
  br label %95

95:                                               ; preds = %94, %52, %48, %41
  call void @llvm.lifetime.end.p0(i64 1, ptr %6) #13
  %96 = load i32, ptr %3, align 4
  ret i32 %96
}