; Function Attrs: nounwind uwtable
define dso_local range(i32 0, 2025) i32 @job_alloc_info_ptr(i32 noundef %0, ptr noundef %1) local_unnamed_addr #0 {
  %3 = load i16, ptr getelementptr inbounds nuw (i8, ptr @slurm_conf, i64 904), align 8
  %4 = and i16 %3, 1
  %.not = icmp eq i16 %4, 0
  br i1 %.not, label %25, label %5

5:                                                ; preds = %2
  %6 = getelementptr inbounds nuw i8, ptr %1, i64 1096
  %7 = load i32, ptr %6, align 8
  %.not24 = icmp eq i32 %7, %0
  br i1 %.not24, label %25, label %8

8:                                                ; preds = %5
  %9 = tail call zeroext i1 @validate_operator(i32 noundef %0) #27
  br i1 %9, label %25, label %10

10:                                               ; preds = %8
  %11 = tail call i32 @slurm_mcs_get_privatedata() #27
  %12 = icmp eq i32 %11, 0
  br i1 %12, label %13, label %18

13:                                               ; preds = %10
  %14 = load ptr, ptr @acct_db_conn, align 8
  %15 = getelementptr inbounds nuw i8, ptr %1, i64 8
  %16 = load ptr, ptr %15, align 8
  %17 = tail call zeroext i1 @assoc_mgr_is_user_acct_coord(ptr noundef %14, i32 noundef %0, ptr noundef %16, i1 noundef zeroext false) #27
  br i1 %17, label %18, label %_job_all_finished.exit.thread

18:                                               ; preds = %13, %10
  %19 = tail call i32 @slurm_mcs_get_privatedata() #27
  %20 = icmp eq i32 %19, 1
  br i1 %20, label %21, label %25

21:                                               ; preds = %18
  %22 = getelementptr inbounds nuw i8, ptr %1, i64 536
  %23 = load ptr, ptr %22, align 8
  %24 = tail call i32 @mcs_g_check_mcs_label(i32 noundef %0, ptr noundef %23, i1 noundef zeroext false) #27
  %.not25 = icmp eq i32 %24, 0
  br i1 %.not25, label %25, label %_job_all_finished.exit.thread

25:                                               ; preds = %21, %18, %8, %5, %2
  %26 = getelementptr inbounds nuw i8, ptr %1, i64 448
  %27 = load i32, ptr %26, align 8
  %28 = and i32 %27, 255
  %29 = icmp eq i32 %28, 0
  br i1 %29, label %_job_all_finished.exit.thread, label %30

30:                                               ; preds = %25
  %31 = icmp samesign ugt i32 %28, 2
  br i1 %31, label %32, label %_job_all_finished.exit.thread30

32:                                               ; preds = %30
  %33 = getelementptr inbounds nuw i8, ptr %1, i64 384
  %34 = load ptr, ptr %33, align 8
  %.not.i = icmp eq ptr %34, null
  br i1 %.not.i, label %_job_all_finished.exit.thread, label %35

35:                                               ; preds = %32
  %36 = tail call ptr @list_iterator_create(ptr noundef nonnull %34) #27
  br label %37

37:                                               ; preds = %39, %35
  %38 = tail call ptr @list_next(ptr noundef %36) #27
  %.not10.i = icmp eq ptr %38, null
  br i1 %.not10.i, label %_job_all_finished.exit.thread32, label %39

_job_all_finished.exit.thread32:                  ; preds = %37
  tail call void @list_iterator_destroy(ptr noundef %36) #27
  br label %_job_all_finished.exit.thread

39:                                               ; preds = %37
  %40 = getelementptr inbounds nuw i8, ptr %38, i64 448
  %41 = load i32, ptr %40, align 8
  %42 = and i32 %41, 255
  %43 = icmp samesign ugt i32 %42, 2
  br i1 %43, label %37, label %_job_all_finished.exit, !llvm.loop !89

_job_all_finished.exit:                           ; preds = %39
  tail call void @list_iterator_destroy(ptr noundef %36) #27
  br label %_job_all_finished.exit.thread30

_job_all_finished.exit.thread30:                  ; preds = %30, %_job_all_finished.exit
  %44 = getelementptr inbounds nuw i8, ptr %1, i64 216
  %45 = load ptr, ptr %44, align 8
  %.not26 = icmp eq ptr %45, null
  br i1 %.not26, label %50, label %46

46:                                               ; preds = %_job_all_finished.exit.thread30
  %47 = getelementptr inbounds nuw i8, ptr %45, i64 352
  %48 = load i8, ptr %47, align 8
  %49 = icmp eq i8 %48, 0
  br label %50

50:                                               ; preds = %46, %_job_all_finished.exit.thread30
  %.0 = phi i1 [ %49, %46 ], [ true, %_job_all_finished.exit.thread30 ]
  %51 = getelementptr inbounds nuw i8, ptr %1, i64 24
  %52 = load ptr, ptr %51, align 8
  %.not27 = icmp eq ptr %52, null
  br i1 %.not27, label %_job_all_finished.exit.thread, label %53

53:                                               ; preds = %50
  %54 = tail call i32 @xstrcmp(ptr noundef nonnull %52, ptr noundef nonnull @.str.167) #27
  %55 = icmp eq i32 %54, 0
  %or.cond = select i1 %55, i1 %.0, i1 false
  br i1 %or.cond, label %56, label %_job_all_finished.exit.thread

56:                                               ; preds = %53
  %57 = getelementptr inbounds nuw i8, ptr %1, i64 584
  %58 = load ptr, ptr %57, align 8
  %.not28 = icmp eq ptr %58, null
  br i1 %.not28, label %_job_all_finished.exit.thread, label %59

59:                                               ; preds = %56
  %60 = load ptr, ptr @power_down_node_bitmap, align 8
  %61 = tail call i32 @bit_overlap_any(ptr noundef %60, ptr noundef nonnull %58) #27
  %62 = icmp eq i32 %61, 0
  br i1 %62, label %63, label %_job_all_finished.exit.thread

63:                                               ; preds = %59
  %64 = tail call i64 @time(ptr noundef null) #27
  store i64 %64, ptr @last_job_update, align 8
  tail call void @set_job_alias_list(ptr noundef nonnull %1) #27
  br label %_job_all_finished.exit.thread

_job_all_finished.exit.thread:                    ; preds = %32, %_job_all_finished.exit.thread32, %50, %53, %56, %59, %63, %25, %13, %21
  %.019 = phi i32 [ 2002, %21 ], [ 2002, %13 ], [ 2024, %25 ], [ 0, %63 ], [ 0, %59 ], [ 0, %56 ], [ 0, %53 ], [ 0, %50 ], [ 2021, %_job_all_finished.exit.thread32 ], [ 2021, %32 ]
  ret i32 %.019
}